; Function Attrs: nounwind uwtable
define i32 @H5Tget_array_ndims(i64 noundef %0) local_unnamed_addr #0 {
  %2 = load i8, ptr @H5_libinit_g, align 1
  %3 = trunc i8 %2 to i1
  %4 = load i8, ptr @H5_libterm_g, align 1
  %5 = trunc i8 %4 to i1
  %6 = select i1 %3, i1 true, i1 %5
  br i1 %6, label %14, label %7

7:                                                ; preds = %1
  %8 = tail call i32 @H5_init_library() #5
  %9 = icmp slt i32 %8, 0
  br i1 %9, label %10, label %14

10:                                               ; preds = %7
  %11 = load i64, ptr @H5E_FUNC_g, align 8
  %12 = load i64, ptr @H5E_CANTINIT_g, align 8
  %13 = tail call i32 (ptr, ptr, i32, i64, i64, ptr, ...) @H5E_printf_stack(ptr noundef nonnull @.str, ptr noundef nonnull @__func__.H5Tget_array_ndims, i32 noundef 191, i64 noundef %11, i64 noundef %12, ptr noundef nonnull @.str.1) #5
  br label %.thread20

14:                                               ; preds = %7, %1
  %15 = tail call i32 @H5CX_push() #5
  %16 = icmp slt i32 %15, 0
  br i1 %16, label %17, label %21

17:                                               ; preds = %14
  %18 = load i64, ptr @H5E_FUNC_g, align 8
  %19 = load i64, ptr @H5E_CANTSET_g, align 8
  %20 = tail call i32 (ptr, ptr, i32, i64, i64, ptr, ...) @H5E_printf_stack(ptr noundef nonnull @.str, ptr noundef nonnull @__func__.H5Tget_array_ndims, i32 noundef 191, i64 noundef %18, i64 noundef %19, ptr noundef nonnull @.str.2) #5
  br label %.thread20

21:                                               ; preds = %14
  %22 = tail call i32 @H5E_clear_stack() #5
  %23 = tail call ptr @H5I_object_verify(i64 noundef %0, i32 noundef 3) #5
  %24 = icmp eq ptr %23, null
  br i1 %24, label %25, label %29

25:                                               ; preds = %21
  %26 = load i64, ptr @H5E_ARGS_g, align 8
  %27 = load i64, ptr @H5E_BADTYPE_g, align 8
  %28 = tail call i32 (ptr, ptr, i32, i64, i64, ptr, ...) @H5E_printf_stack(ptr noundef nonnull @.str, ptr noundef nonnull @__func__.H5Tget_array_ndims, i32 noundef 195, i64 noundef %26, i64 noundef %27, ptr noundef nonnull @.str.12) #5
  br label %.thread26

29:                                               ; preds = %21
  %30 = getelementptr inbounds i8, ptr %23, i64 40
  %31 = load ptr, ptr %30, align 8
  %32 = getelementptr inbounds i8, ptr %31, i64 12
  %33 = load i32, ptr %32, align 4
  %.not = icmp eq i32 %33, 10
  br i1 %.not, label %39, label %34

34:                                               ; preds = %29
  %35 = load i64, ptr @H5E_ARGS_g, align 8
  %36 = load i64, ptr @H5E_BADTYPE_g, align 8
  %37 = tail call i32 (ptr, ptr, i32, i64, i64, ptr, ...) @H5E_printf_stack(ptr noundef nonnull @.str, ptr noundef nonnull @__func__.H5Tget_array_ndims, i32 noundef 197, i64 noundef %35, i64 noundef %36, ptr noundef nonnull @.str.13) #5
  br label %.thread26

.thread26:                                        ; preds = %34, %25
  %38 = tail call i32 @H5CX_pop(i1 noundef zeroext true) #5
  br label %.thread20

39:                                               ; preds = %29
  %40 = getelementptr inbounds i8, ptr %31, i64 56
  %41 = load i32, ptr %40, align 8
  %42 = tail call i32 @H5CX_pop(i1 noundef zeroext true) #5
  br label %44

.thread20:                                        ; preds = %17, %10, %.thread26
  %43 = tail call i32 @H5E_dump_api_stack() #5
  br label %44

44:                                               ; preds = %39, %.thread20
  %.0101523 = phi i32 [ -1, %.thread20 ], [ %41, %39 ]
  ret i32 %.0101523
}